target datalayout = "e-m:e-p270:32:32-p271:32:32-p272:64:64-i64:64-i128:128-f80:128-n8:16:32:64-S128"
target triple = "x86_64-unknown-linux-gnu"

%class.btRigidBody = type { %class.btCollisionObject.base, %class.btMatrix3x3, %class.btVector3, %class.btVector3, float, %class.btVector3, %class.btVector3, %class.btVector3, %class.btVector3, %class.btVector3, %class.btVector3, float, float, i8, float, float, float, float, float, float, ptr, %class.btAlignedObjectArray.1, i32, i32, %class.btVector3, %class.btVector3, %class.btVector3, %class.btVector3, %class.btVector3, %class.btVector3, i32, i32 }
%class.btCollisionObject.base = type <{ ptr, %class.btTransform, %class.btTransform, %class.btVector3, %class.btVector3, %class.btVector3, i32, float, ptr, ptr, ptr, ptr, i32, i32, i32, i32, i32, float, float, float, float, float, float, float, i32, [4 x i8], ptr, i32, i32, i32, float, float, float, i32, [4 x i8], %class.btAlignedObjectArray, i32, %class.btVector3 }>
%class.btTransform = type { %class.btMatrix3x3, %class.btVector3 }
%class.btAlignedObjectArray = type <{ %class.btAlignedAllocator, [3 x i8], i32, i32, [4 x i8], ptr, i8, [7 x i8] }>
%class.btAlignedAllocator = type { i8 }
%class.btMatrix3x3 = type { [3 x %class.btVector3] }
%class.btAlignedObjectArray.1 = type <{ %class.btAlignedAllocator.2, [3 x i8], i32, i32, [4 x i8], ptr, i8, [7 x i8] }>
%class.btAlignedAllocator.2 = type { i8 }
%class.btVector3 = type { [4 x float] }
%class.btTypedConstraint = type { ptr, %struct.btTypedObject, i32, %union.anon.0, float, i8, i8, i32, ptr, ptr, float, float, ptr }
%struct.btTypedObject = type { i32 }
%union.anon.0 = type { ptr }
%struct.btTypedConstraintFloatData = type { ptr, ptr, ptr, i32, i32, i32, i32, float, float, i32, i32, float, i32 }

@.str = private unnamed_addr constant [27 x i8] c"btTypedConstraintFloatData\00", align 1

; Function Attrs: mustprogress nounwind uwtable
define linkonce_odr dso_local noundef nonnull align 8 dereferenceable(8) ptr @_ZN20btAlignedObjectArrayIP17btTypedConstraintEixEi(ptr noundef nonnull align 8 dereferenceable(25) %this, i32 noundef %n) #1 comdat align 2 {
entry:
  %this.addr = alloca ptr, align 8
  %n.addr = alloca i32, align 4
  store ptr %this, ptr %this.addr, align 8
  store i32 %n, ptr %n.addr, align 4
  %this1 = load ptr, ptr %this.addr, align 8
  %m_data = getelementptr inbounds %class.btAlignedObjectArray.1, ptr %this1, i32 0, i32 5
  %0 = load ptr, ptr %m_data, align 8
  %1 = load i32, ptr %n.addr, align 4
  %idxprom = sext i32 %1 to i64
  %arrayidx = getelementptr inbounds ptr, ptr %0, i64 %idxprom
  ret ptr %arrayidx
}

; Function Attrs: mustprogress nounwind uwtable
define linkonce_odr dso_local noundef i32 @_ZNK20btAlignedObjectArrayIP17btTypedConstraintE4sizeEv(ptr noundef nonnull align 8 dereferenceable(25) %this) #1 comdat align 2 {
entry:
  %this.addr = alloca ptr, align 8
  store ptr %this, ptr %this.addr, align 8
  %this1 = load ptr, ptr %this.addr, align 8
  %m_size = getelementptr inbounds %class.btAlignedObjectArray.1, ptr %this1, i32 0, i32 2
  %0 = load i32, ptr %m_size, align 4
  ret i32 %0
}

; Function Attrs: mustprogress uwtable
define linkonce_odr dso_local noundef ptr @_ZN11btRigidBody16getConstraintRefEi(ptr noundef nonnull align 8 dereferenceable(744) %this, i32 noundef %index) #2 comdat align 2 {
entry:
  %this.addr = alloca ptr, align 8
  %index.addr = alloca i32, align 4
  store ptr %this, ptr %this.addr, align 8
  store i32 %index, ptr %index.addr, align 4
  %this1 = load ptr, ptr %this.addr, align 8
  %m_constraintRefs = getelementptr inbounds %class.btRigidBody, ptr %this1, i32 0, i32 21
  %0 = load i32, ptr %index.addr, align 4
  %call = call noundef nonnull align 8 dereferenceable(8) ptr @_ZN20btAlignedObjectArrayIP17btTypedConstraintEixEi(ptr noundef nonnull align 8 dereferenceable(25) %m_constraintRefs, i32 noundef %0)
  %1 = load ptr, ptr %call, align 8
  ret ptr %1
}

; Function Attrs: mustprogress uwtable
define linkonce_odr dso_local noundef i32 @_ZNK11btRigidBody20getNumConstraintRefsEv(ptr noundef nonnull align 8 dereferenceable(744) %this) #2 comdat align 2 {
entry:
  %this.addr = alloca ptr, align 8
  store ptr %this, ptr %this.addr, align 8
  %this1 = load ptr, ptr %this.addr, align 8
  %m_constraintRefs = getelementptr inbounds %class.btRigidBody, ptr %this1, i32 0, i32 21
  %call = call noundef i32 @_ZNK20btAlignedObjectArrayIP17btTypedConstraintE4sizeEv(ptr noundef nonnull align 8 dereferenceable(25) %m_constraintRefs)
  ret i32 %call
}

; Function Attrs: mustprogress uwtable
define dso_local noundef ptr @_ZNK17btTypedConstraint9serializeEPvP12btSerializer(ptr noundef nonnull align 8 dereferenceable(72) %this, ptr noundef %dataBuffer, ptr noundef %serializer) unnamed_addr #2 align 2 {
entry:
  %this.addr = alloca ptr, align 8
  %dataBuffer.addr = alloca ptr, align 8
  %serializer.addr = alloca ptr, align 8
  %tcd = alloca ptr, align 8
  %name = alloca ptr, align 8
  %i = alloca i32, align 4
  store ptr %this, ptr %this.addr, align 8
  store ptr %dataBuffer, ptr %dataBuffer.addr, align 8
  store ptr %serializer, ptr %serializer.addr, align 8
  %this1 = load ptr, ptr %this.addr, align 8
  %0 = load ptr, ptr %dataBuffer.addr, align 8
  store ptr %0, ptr %tcd, align 8
  %1 = load ptr, ptr %serializer.addr, align 8
  %m_rbA = getelementptr inbounds %class.btTypedConstraint, ptr %this1, i32 0, i32 8
  %2 = load ptr, ptr %m_rbA, align 8
  %vtable = load ptr, ptr %1, align 8
  %vfn = getelementptr inbounds ptr, ptr %vtable, i64 7
  %3 = load ptr, ptr %vfn, align 8
  %call = call noundef ptr %3(ptr noundef nonnull align 8 dereferenceable(8) %1, ptr noundef %2)
  %4 = load ptr, ptr %tcd, align 8
  %m_rbA2 = getelementptr inbounds %struct.btTypedConstraintFloatData, ptr %4, i32 0, i32 0
  store ptr %call, ptr %m_rbA2, align 8
  %5 = load ptr, ptr %serializer.addr, align 8
  %m_rbB = getelementptr inbounds %class.btTypedConstraint, ptr %this1, i32 0, i32 9
  %6 = load ptr, ptr %m_rbB, align 8
  %vtable3 = load ptr, ptr %5, align 8
  %vfn4 = getelementptr inbounds ptr, ptr %vtable3, i64 7
  %7 = load ptr, ptr %vfn4, align 8
  %call5 = call noundef ptr %7(ptr noundef nonnull align 8 dereferenceable(8) %5, ptr noundef %6)
  %8 = load ptr, ptr %tcd, align 8
  %m_rbB6 = getelementptr inbounds %struct.btTypedConstraintFloatData, ptr %8, i32 0, i32 1
  store ptr %call5, ptr %m_rbB6, align 8
  %9 = load ptr, ptr %serializer.addr, align 8
  %vtable7 = load ptr, ptr %9, align 8
  %vfn8 = getelementptr inbounds ptr, ptr %vtable7, i64 10
  %10 = load ptr, ptr %vfn8, align 8
  %call9 = call noundef ptr %10(ptr noundef nonnull align 8 dereferenceable(8) %9, ptr noundef %this1)
  store ptr %call9, ptr %name, align 8
  %11 = load ptr, ptr %serializer.addr, align 8
  %12 = load ptr, ptr %name, align 8
  %vtable10 = load ptr, ptr %11, align 8
  %vfn11 = getelementptr inbounds ptr, ptr %vtable10, i64 7
  %13 = load ptr, ptr %vfn11, align 8
  %call12 = call noundef ptr %13(ptr noundef nonnull align 8 dereferenceable(8) %11, ptr noundef %12)
  %14 = load ptr, ptr %tcd, align 8
  %m_name = getelementptr inbounds %struct.btTypedConstraintFloatData, ptr %14, i32 0, i32 2
  store ptr %call12, ptr %m_name, align 8
  %15 = load ptr, ptr %tcd, align 8
  %m_name13 = getelementptr inbounds %struct.btTypedConstraintFloatData, ptr %15, i32 0, i32 2
  %16 = load ptr, ptr %m_name13, align 8
  %tobool = icmp ne ptr %16, null
  br i1 %tobool, label %if.then, label %if.end

if.then:                                          ; preds = %entry
  %17 = load ptr, ptr %serializer.addr, align 8
  %18 = load ptr, ptr %name, align 8
  %vtable14 = load ptr, ptr %17, align 8
  %vfn15 = getelementptr inbounds ptr, ptr %vtable14, i64 12
  %19 = load ptr, ptr %vfn15, align 8
  call void %19(ptr noundef nonnull align 8 dereferenceable(8) %17, ptr noundef %18)
  br label %if.end

if.end:                                           ; preds = %if.then, %entry
  %add.ptr = getelementptr inbounds i8, ptr %this1, i64 8
  %m_objectType = getelementptr inbounds %struct.btTypedObject, ptr %add.ptr, i32 0, i32 0
  %20 = load i32, ptr %m_objectType, align 8
  %21 = load ptr, ptr %tcd, align 8
  %m_objectType16 = getelementptr inbounds %struct.btTypedConstraintFloatData, ptr %21, i32 0, i32 3
  store i32 %20, ptr %m_objectType16, align 8
  %m_needsFeedback = getelementptr inbounds %class.btTypedConstraint, ptr %this1, i32 0, i32 6
  %22 = load i8, ptr %m_needsFeedback, align 1
  %tobool17 = trunc i8 %22 to i1
  %conv = zext i1 %tobool17 to i32
  %23 = load ptr, ptr %tcd, align 8
  %m_needsFeedback18 = getelementptr inbounds %struct.btTypedConstraintFloatData, ptr %23, i32 0, i32 6
  store i32 %conv, ptr %m_needsFeedback18, align 4
  %m_overrideNumSolverIterations = getelementptr inbounds %class.btTypedConstraint, ptr %this1, i32 0, i32 7
  %24 = load i32, ptr %m_overrideNumSolverIterations, align 8
  %25 = load ptr, ptr %tcd, align 8
  %m_overrideNumSolverIterations19 = getelementptr inbounds %struct.btTypedConstraintFloatData, ptr %25, i32 0, i32 10
  store i32 %24, ptr %m_overrideNumSolverIterations19, align 4
  %m_breakingImpulseThreshold = getelementptr inbounds %class.btTypedConstraint, ptr %this1, i32 0, i32 4
  %26 = load float, ptr %m_breakingImpulseThreshold, align 8
  %27 = load ptr, ptr %tcd, align 8
  %m_breakingImpulseThreshold20 = getelementptr inbounds %struct.btTypedConstraintFloatData, ptr %27, i32 0, i32 11
  store float %26, ptr %m_breakingImpulseThreshold20, align 8
  %m_isEnabled = getelementptr inbounds %class.btTypedConstraint, ptr %this1, i32 0, i32 5
  %28 = load i8, ptr %m_isEnabled, align 4
  %tobool21 = trunc i8 %28 to i1
  %cond = select i1 %tobool21, i32 1, i32 0
  %29 = load ptr, ptr %tcd, align 8
  %m_isEnabled22 = getelementptr inbounds %struct.btTypedConstraintFloatData, ptr %29, i32 0, i32 12
  store i32 %cond, ptr %m_isEnabled22, align 4
  %30 = getelementptr inbounds %class.btTypedConstraint, ptr %this1, i32 0, i32 3
  %31 = load i32, ptr %30, align 8
  %32 = load ptr, ptr %tcd, align 8
  %m_userConstraintId = getelementptr inbounds %struct.btTypedConstraintFloatData, ptr %32, i32 0, i32 5
  store i32 %31, ptr %m_userConstraintId, align 8
  %m_userConstraintType = getelementptr inbounds %class.btTypedConstraint, ptr %this1, i32 0, i32 2
  %33 = load i32, ptr %m_userConstraintType, align 4
  %34 = load ptr, ptr %tcd, align 8
  %m_userConstraintType23 = getelementptr inbounds %struct.btTypedConstraintFloatData, ptr %34, i32 0, i32 4
  store i32 %33, ptr %m_userConstraintType23, align 4
  %m_appliedImpulse = getelementptr inbounds %class.btTypedConstraint, ptr %this1, i32 0, i32 10
  %35 = load float, ptr %m_appliedImpulse, align 8
  %36 = load ptr, ptr %tcd, align 8
  %m_appliedImpulse24 = getelementptr inbounds %struct.btTypedConstraintFloatData, ptr %36, i32 0, i32 7
  store float %35, ptr %m_appliedImpulse24, align 8
  %m_dbgDrawSize = getelementptr inbounds %class.btTypedConstraint, ptr %this1, i32 0, i32 11
  %37 = load float, ptr %m_dbgDrawSize, align 4
  %38 = load ptr, ptr %tcd, align 8
  %m_dbgDrawSize25 = getelementptr inbounds %struct.btTypedConstraintFloatData, ptr %38, i32 0, i32 8
  store float %37, ptr %m_dbgDrawSize25, align 4
  %39 = load ptr, ptr %tcd, align 8
  %m_disableCollisionsBetweenLinkedBodies = getelementptr inbounds %struct.btTypedConstraintFloatData, ptr %39, i32 0, i32 9
  store i32 0, ptr %m_disableCollisionsBetweenLinkedBodies, align 8
  store i32 0, ptr %i, align 4
  br label %for.cond

for.cond:                                         ; preds = %for.inc, %if.end
  %40 = load i32, ptr %i, align 4
  %m_rbA26 = getelementptr inbounds %class.btTypedConstraint, ptr %this1, i32 0, i32 8
  %41 = load ptr, ptr %m_rbA26, align 8
  %call27 = call noundef i32 @_ZNK11btRigidBody20getNumConstraintRefsEv(ptr noundef nonnull align 8 dereferenceable(744) %41)
  %cmp = icmp slt i32 %40, %call27
  br i1 %cmp, label %for.body, label %for.end

for.body:                                         ; preds = %for.cond
  %m_rbA28 = getelementptr inbounds %class.btTypedConstraint, ptr %this1, i32 0, i32 8
  %42 = load ptr, ptr %m_rbA28, align 8
  %43 = load i32, ptr %i, align 4
  %call29 = call noundef ptr @_ZN11btRigidBody16getConstraintRefEi(ptr noundef nonnull align 8 dereferenceable(744) %42, i32 noundef %43)
  %cmp30 = icmp eq ptr %call29, %this1
  br i1 %cmp30, label %if.then31, label %if.end33

if.then31:                                        ; preds = %for.body
  %44 = load ptr, ptr %tcd, align 8
  %m_disableCollisionsBetweenLinkedBodies32 = getelementptr inbounds %struct.btTypedConstraintFloatData, ptr %44, i32 0, i32 9
  store i32 1, ptr %m_disableCollisionsBetweenLinkedBodies32, align 8
  br label %if.end33

if.end33:                                         ; preds = %if.then31, %for.body
  br label %for.inc

for.inc:                                          ; preds = %if.end33
  %45 = load i32, ptr %i, align 4
  %inc = add nsw i32 %45, 1
  store i32 %inc, ptr %i, align 4
  br label %for.cond, !llvm.loop !6

for.end:                                          ; preds = %for.cond
  store i32 0, ptr %i, align 4
  br label %for.cond34

for.cond34:                                       ; preds = %for.inc45, %for.end
  %46 = load i32, ptr %i, align 4
  %m_rbB35 = getelementptr inbounds %class.btTypedConstraint, ptr %this1, i32 0, i32 9
  %47 = load ptr, ptr %m_rbB35, align 8
  %call36 = call noundef i32 @_ZNK11btRigidBody20getNumConstraintRefsEv(ptr noundef nonnull align 8 dereferenceable(744) %47)
  %cmp37 = icmp slt i32 %46, %call36
  br i1 %cmp37, label %for.body38, label %for.end47

for.body38:                                       ; preds = %for.cond34
  %m_rbB39 = getelementptr inbounds %class.btTypedConstraint, ptr %this1, i32 0, i32 9
  %48 = load ptr, ptr %m_rbB39, align 8
  %49 = load i32, ptr %i, align 4
  %call40 = call noundef ptr @_ZN11btRigidBody16getConstraintRefEi(ptr noundef nonnull align 8 dereferenceable(744) %48, i32 noundef %49)
  %cmp41 = icmp eq ptr %call40, %this1
  br i1 %cmp41, label %if.then42, label %if.end44

if.then42:                                        ; preds = %for.body38
  %50 = load ptr, ptr %tcd, align 8
  %m_disableCollisionsBetweenLinkedBodies43 = getelementptr inbounds %struct.btTypedConstraintFloatData, ptr %50, i32 0, i32 9
  store i32 1, ptr %m_disableCollisionsBetweenLinkedBodies43, align 8
  br label %if.end44

if.end44:                                         ; preds = %if.then42, %for.body38
  br label %for.inc45

for.inc45:                                        ; preds = %if.end44
  %51 = load i32, ptr %i, align 4
  %inc46 = add nsw i32 %51, 1
  store i32 %inc46, ptr %i, align 4
  br label %for.cond34, !llvm.loop !8

for.end47:                                        ; preds = %for.cond34
  ret ptr @.str
}