; Function Attrs: mustprogress uwtable
define dso_local noundef ptr @_ZNK17btTypedConstraint9serializeEPvP12btSerializer(ptr noundef nonnull align 8 dereferenceable(72) %this, ptr nocapture noundef writeonly %dataBuffer, ptr noundef %serializer) unnamed_addr #1 align 2 {
entry:
  %m_rbA = getelementptr inbounds i8, ptr %this, i64 40
  %0 = load ptr, ptr %m_rbA, align 8
  %vtable = load ptr, ptr %serializer, align 8
  %vfn = getelementptr inbounds i8, ptr %vtable, i64 56
  %1 = load ptr, ptr %vfn, align 8
  %call = tail call noundef ptr %1(ptr noundef nonnull align 8 dereferenceable(8) %serializer, ptr noundef %0)
  store ptr %call, ptr %dataBuffer, align 8
  %m_rbB = getelementptr inbounds i8, ptr %this, i64 48
  %2 = load ptr, ptr %m_rbB, align 8
  %vtable3 = load ptr, ptr %serializer, align 8
  %vfn4 = getelementptr inbounds i8, ptr %vtable3, i64 56
  %3 = load ptr, ptr %vfn4, align 8
  %call5 = tail call noundef ptr %3(ptr noundef nonnull align 8 dereferenceable(8) %serializer, ptr noundef %2)
  %m_rbB6 = getelementptr inbounds i8, ptr %dataBuffer, i64 8
  store ptr %call5, ptr %m_rbB6, align 8
  %vtable7 = load ptr, ptr %serializer, align 8
  %vfn8 = getelementptr inbounds i8, ptr %vtable7, i64 80
  %4 = load ptr, ptr %vfn8, align 8
  %call9 = tail call noundef ptr %4(ptr noundef nonnull align 8 dereferenceable(8) %serializer, ptr noundef nonnull %this)
  %vtable10 = load ptr, ptr %serializer, align 8
  %vfn11 = getelementptr inbounds i8, ptr %vtable10, i64 56
  %5 = load ptr, ptr %vfn11, align 8
  %call12 = tail call noundef ptr %5(ptr noundef nonnull align 8 dereferenceable(8) %serializer, ptr noundef %call9)
  %m_name = getelementptr inbounds i8, ptr %dataBuffer, i64 16
  store ptr %call12, ptr %m_name, align 8
  %tobool.not = icmp eq ptr %call12, null
  br i1 %tobool.not, label %if.end, label %if.then

if.then:                                          ; preds = %entry
  %vtable14 = load ptr, ptr %serializer, align 8
  %vfn15 = getelementptr inbounds i8, ptr %vtable14, i64 96
  %6 = load ptr, ptr %vfn15, align 8
  tail call void %6(ptr noundef nonnull align 8 dereferenceable(8) %serializer, ptr noundef %call9)
  br label %if.end

if.end:                                           ; preds = %if.then, %entry
  %add.ptr = getelementptr inbounds i8, ptr %this, i64 8
  %7 = load i32, ptr %add.ptr, align 8
  %m_objectType16 = getelementptr inbounds i8, ptr %dataBuffer, i64 24
  store i32 %7, ptr %m_objectType16, align 8
  %m_needsFeedback = getelementptr inbounds i8, ptr %this, i64 29
  %8 = load i8, ptr %m_needsFeedback, align 1
  %9 = and i8 %8, 1
  %conv = zext nneg i8 %9 to i32
  %m_needsFeedback18 = getelementptr inbounds i8, ptr %dataBuffer, i64 36
  store i32 %conv, ptr %m_needsFeedback18, align 4
  %m_overrideNumSolverIterations = getelementptr inbounds i8, ptr %this, i64 32
  %10 = load i32, ptr %m_overrideNumSolverIterations, align 8
  %m_overrideNumSolverIterations19 = getelementptr inbounds i8, ptr %dataBuffer, i64 52
  store i32 %10, ptr %m_overrideNumSolverIterations19, align 4
  %m_breakingImpulseThreshold = getelementptr inbounds i8, ptr %this, i64 24
  %11 = load float, ptr %m_breakingImpulseThreshold, align 8
  %m_breakingImpulseThreshold20 = getelementptr inbounds i8, ptr %dataBuffer, i64 56
  store float %11, ptr %m_breakingImpulseThreshold20, align 8
  %m_isEnabled = getelementptr inbounds i8, ptr %this, i64 28
  %12 = load i8, ptr %m_isEnabled, align 4
  %13 = and i8 %12, 1
  %cond = zext nneg i8 %13 to i32
  %m_isEnabled22 = getelementptr inbounds i8, ptr %dataBuffer, i64 60
  store i32 %cond, ptr %m_isEnabled22, align 4
  %14 = getelementptr inbounds i8, ptr %this, i64 16
  %15 = load i32, ptr %14, align 8
  %m_userConstraintId = getelementptr inbounds i8, ptr %dataBuffer, i64 32
  store i32 %15, ptr %m_userConstraintId, align 8
  %m_userConstraintType = getelementptr inbounds i8, ptr %this, i64 12
  %16 = load i32, ptr %m_userConstraintType, align 4
  %m_userConstraintType23 = getelementptr inbounds i8, ptr %dataBuffer, i64 28
  store i32 %16, ptr %m_userConstraintType23, align 4
  %m_appliedImpulse = getelementptr inbounds i8, ptr %this, i64 56
  %17 = load float, ptr %m_appliedImpulse, align 8
  %m_appliedImpulse24 = getelementptr inbounds i8, ptr %dataBuffer, i64 40
  store float %17, ptr %m_appliedImpulse24, align 8
  %m_dbgDrawSize = getelementptr inbounds i8, ptr %this, i64 60
  %18 = load float, ptr %m_dbgDrawSize, align 4
  %m_dbgDrawSize25 = getelementptr inbounds i8, ptr %dataBuffer, i64 44
  store float %18, ptr %m_dbgDrawSize25, align 4
  %m_disableCollisionsBetweenLinkedBodies = getelementptr inbounds i8, ptr %dataBuffer, i64 48
  store i32 0, ptr %m_disableCollisionsBetweenLinkedBodies, align 8
  %19 = load ptr, ptr %m_rbA, align 8
  %m_size.i.i30 = getelementptr inbounds i8, ptr %19, i64 604
  %20 = load i32, ptr %m_size.i.i30, align 4
  %cmp31 = icmp sgt i32 %20, 0
  br i1 %cmp31, label %for.body, label %for.cond34.preheader

for.cond34.preheader:                             ; preds = %for.inc, %if.end
  %21 = load ptr, ptr %m_rbB, align 8
  %m_size.i.i2633 = getelementptr inbounds i8, ptr %21, i64 604
  %22 = load i32, ptr %m_size.i.i2633, align 4
  %cmp3734 = icmp sgt i32 %22, 0
  br i1 %cmp3734, label %for.body38, label %for.end47

for.body:                                         ; preds = %if.end, %for.inc
  %23 = phi ptr [ %26, %for.inc ], [ %19, %if.end ]
  %indvars.iv = phi i64 [ %indvars.iv.next, %for.inc ], [ 0, %if.end ]
  %m_data.i.i = getelementptr inbounds i8, ptr %23, i64 616
  %24 = load ptr, ptr %m_data.i.i, align 8
  %arrayidx.i.i = getelementptr inbounds ptr, ptr %24, i64 %indvars.iv
  %25 = load ptr, ptr %arrayidx.i.i, align 8
  %cmp30 = icmp eq ptr %25, %this
  br i1 %cmp30, label %if.then31, label %for.inc

if.then31:                                        ; preds = %for.body
  store i32 1, ptr %m_disableCollisionsBetweenLinkedBodies, align 8
  %.pre = load ptr, ptr %m_rbA, align 8
  br label %for.inc

for.inc:                                          ; preds = %for.body, %if.then31
  %26 = phi ptr [ %23, %for.body ], [ %.pre, %if.then31 ]
  %indvars.iv.next = add nuw nsw i64 %indvars.iv, 1
  %m_size.i.i = getelementptr inbounds i8, ptr %26, i64 604
  %27 = load i32, ptr %m_size.i.i, align 4
  %28 = sext i32 %27 to i64
  %cmp = icmp slt i64 %indvars.iv.next, %28
  br i1 %cmp, label %for.body, label %for.cond34.preheader, !llvm.loop !6

for.body38:                                       ; preds = %for.cond34.preheader, %for.inc45
  %29 = phi ptr [ %32, %for.inc45 ], [ %21, %for.cond34.preheader ]
  %indvars.iv37 = phi i64 [ %indvars.iv.next38, %for.inc45 ], [ 0, %for.cond34.preheader ]
  %m_data.i.i27 = getelementptr inbounds i8, ptr %29, i64 616
  %30 = load ptr, ptr %m_data.i.i27, align 8
  %arrayidx.i.i29 = getelementptr inbounds ptr, ptr %30, i64 %indvars.iv37
  %31 = load ptr, ptr %arrayidx.i.i29, align 8
  %cmp41 = icmp eq ptr %31, %this
  br i1 %cmp41, label %if.then42, label %for.inc45

if.then42:                                        ; preds = %for.body38
  store i32 1, ptr %m_disableCollisionsBetweenLinkedBodies, align 8
  %.pre40 = load ptr, ptr %m_rbB, align 8
  br label %for.inc45

for.inc45:                                        ; preds = %for.body38, %if.then42
  %32 = phi ptr [ %29, %for.body38 ], [ %.pre40, %if.then42 ]
  %indvars.iv.next38 = add nuw nsw i64 %indvars.iv37, 1
  %m_size.i.i26 = getelementptr inbounds i8, ptr %32, i64 604
  %33 = load i32, ptr %m_size.i.i26, align 4
  %34 = sext i32 %33 to i64
  %cmp37 = icmp slt i64 %indvars.iv.next38, %34
  br i1 %cmp37, label %for.body38, label %for.end47, !llvm.loop !8

for.end47:                                        ; preds = %for.inc45, %for.cond34.preheader
  ret ptr @.str
}